; Function Attrs: mustprogress uwtable
define hidden void @_ZN3ue212getUcpTai_LeEv(ptr dead_on_unwind noalias writable sret(%"class.ue2::CodePointSet") align 8 initializes((8, 12), (16, 24)) %0) local_unnamed_addr #0 personality ptr @__gxx_personality_v0 {
  %2 = alloca %"class.boost::icl::closed_interval", align 4
  %3 = getelementptr inbounds nuw i8, ptr %0, i64 8
  store i32 0, ptr %3, align 8
  %4 = getelementptr inbounds nuw i8, ptr %0, i64 16
  store ptr null, ptr %4, align 8
  %5 = getelementptr inbounds nuw i8, ptr %0, i64 24
  store ptr %3, ptr %5, align 8
  %6 = getelementptr inbounds nuw i8, ptr %0, i64 32
  store ptr %3, ptr %6, align 8
  %7 = getelementptr inbounds nuw i8, ptr %0, i64 40
  store i64 0, ptr %7, align 8
  %8 = getelementptr inbounds nuw i8, ptr %2, i64 4
  br label %9

9:                                                ; preds = %1, %17
  %10 = phi i1 [ true, %1 ], [ false, %17 ]
  %indvars.iv = phi i64 [ 0, %1 ], [ 2, %17 ]
  %11 = getelementptr inbounds nuw [4 x i32], ptr @_ZN3ue2L14ucp_Tai_Le_defE, i64 0, i64 %indvars.iv
  %12 = load i32, ptr %11, align 8
  %13 = or disjoint i64 %indvars.iv, 1
  %14 = getelementptr inbounds nuw [4 x i32], ptr @_ZN3ue2L14ucp_Tai_Le_defE, i64 0, i64 %13
  %15 = load i32, ptr %14, align 4
  call void @llvm.lifetime.start.p0(i64 8, ptr nonnull %2) #14
  store i32 %12, ptr %2, align 4
  store i32 %15, ptr %8, align 4
  %16 = invoke ptr @_ZN5boost3icl17interval_base_setINS0_12interval_setIjSt4lessNS0_15closed_intervalIjS3_EESaEEjS3_S5_SaE4_addERKS5_(ptr noundef nonnull align 8 dereferenceable(48) %0, ptr noundef nonnull align 4 dereferenceable(8) %2)
          to label %17 unwind label %18

17:                                               ; preds = %9
  call void @llvm.lifetime.end.p0(i64 8, ptr nonnull %2) #14
  br i1 %10, label %9, label %20, !llvm.loop !128

18:                                               ; preds = %9
  %19 = landingpad { ptr, i32 }
          cleanup
  call void @_ZN3ue212CodePointSetD2Ev(ptr noundef nonnull align 8 dereferenceable(48) %0) #14
  resume { ptr, i32 } %19

20:                                               ; preds = %17
  ret void
}